target datalayout = "e-m:e-p270:32:32-p271:32:32-p272:64:64-i64:64-i128:128-f80:128-n8:16:32:64-S128"
target triple = "x86_64-pc-linux-gnu"

@sane_ctype = external constant [256 x i8], align 16

; Function Attrs: nounwind uwtable
define dso_local i32 @xdl_blankline(ptr noundef %0, i64 noundef %1, i64 noundef %2) #0 {
  %4 = alloca i32, align 4
  %5 = alloca ptr, align 8
  %6 = alloca i64, align 8
  %7 = alloca i64, align 8
  %8 = alloca i64, align 8
  %9 = alloca i32, align 4
  store ptr %0, ptr %5, align 8, !tbaa !10
  store i64 %1, ptr %6, align 8, !tbaa !4
  store i64 %2, ptr %7, align 8, !tbaa !4
  call void @llvm.lifetime.start.p0(i64 8, ptr %8) #6
  %10 = load i64, ptr %7, align 8, !tbaa !4
  %11 = and i64 %10, 30
  %12 = icmp ne i64 %11, 0
  br i1 %12, label %17, label %13

13:                                               ; preds = %3
  %14 = load i64, ptr %6, align 8, !tbaa !4
  %15 = icmp sle i64 %14, 1
  %16 = zext i1 %15 to i32
  store i32 %16, ptr %4, align 4
  store i32 1, ptr %9, align 4
  br label %44

17:                                               ; preds = %3
  store i64 0, ptr %8, align 8, !tbaa !4
  br label %18

18:                                               ; preds = %36, %17
  %19 = load i64, ptr %8, align 8, !tbaa !4
  %20 = load i64, ptr %6, align 8, !tbaa !4
  %21 = icmp slt i64 %19, %20
  br i1 %21, label %22, label %33

22:                                               ; preds = %18
  %23 = load ptr, ptr %5, align 8, !tbaa !10
  %24 = load i64, ptr %8, align 8, !tbaa !4
  %25 = getelementptr inbounds i8, ptr %23, i64 %24
  %26 = load i8, ptr %25, align 1, !tbaa !20
  %27 = zext i8 %26 to i64
  %28 = getelementptr inbounds nuw [256 x i8], ptr @sane_ctype, i64 0, i64 %27
  %29 = load i8, ptr %28, align 1, !tbaa !20
  %30 = zext i8 %29 to i32
  %31 = and i32 %30, 1
  %32 = icmp ne i32 %31, 0
  br label %33

33:                                               ; preds = %22, %18
  %34 = phi i1 [ false, %18 ], [ %32, %22 ]
  br i1 %34, label %35, label %39

35:                                               ; preds = %33
  br label %36

36:                                               ; preds = %35
  %37 = load i64, ptr %8, align 8, !tbaa !4
  %38 = add nsw i64 %37, 1
  store i64 %38, ptr %8, align 8, !tbaa !4
  br label %18, !llvm.loop !49

39:                                               ; preds = %33
  %40 = load i64, ptr %8, align 8, !tbaa !4
  %41 = load i64, ptr %6, align 8, !tbaa !4
  %42 = icmp eq i64 %40, %41
  %43 = zext i1 %42 to i32
  store i32 %43, ptr %4, align 4
  store i32 1, ptr %9, align 4
  br label %44

44:                                               ; preds = %39, %13
  call void @llvm.lifetime.end.p0(i64 8, ptr %8) #6
  %45 = load i32, ptr %4, align 4
  ret i32 %45
}