; Function Attrs: nofree norecurse nosync nounwind memory(argmem: read) uwtable
define dso_local range(i32 0, 2) i32 @xdl_blankline(ptr noundef readonly captures(none) %0, i64 noundef %1, i64 noundef %2) local_unnamed_addr #10 {
  %4 = and i64 %2, 30
  %.not = icmp eq i64 %4, 0
  br i1 %.not, label %6, label %.preheader

.preheader:                                       ; preds = %3
  %5 = icmp sgt i64 %1, 0
  br i1 %5, label %.lr.ph, label %.critedge

6:                                                ; preds = %3
  %7 = icmp slt i64 %1, 2
  br label %17

.lr.ph:                                           ; preds = %.preheader, %14
  %.011 = phi i64 [ %15, %14 ], [ 0, %.preheader ]
  %8 = getelementptr inbounds nuw i8, ptr %0, i64 %.011
  %9 = load i8, ptr %8, align 1, !tbaa !14
  %10 = zext i8 %9 to i64
  %11 = getelementptr inbounds nuw [256 x i8], ptr @sane_ctype, i64 0, i64 %10
  %12 = load i8, ptr %11, align 1, !tbaa !14
  %13 = and i8 %12, 1
  %.not10 = icmp eq i8 %13, 0
  br i1 %.not10, label %.critedge, label %14

14:                                               ; preds = %.lr.ph
  %15 = add nuw nsw i64 %.011, 1
  %exitcond.not = icmp eq i64 %15, %1
  br i1 %exitcond.not, label %.critedge, label %.lr.ph, !llvm.loop !34

.critedge:                                        ; preds = %.lr.ph, %14, %.preheader
  %.0.lcssa = phi i64 [ 0, %.preheader ], [ %1, %14 ], [ %.011, %.lr.ph ]
  %16 = icmp eq i64 %.0.lcssa, %1
  br label %17

17:                                               ; preds = %.critedge, %6
  %.09.in = phi i1 [ %16, %.critedge ], [ %7, %6 ]
  %.09 = zext i1 %.09.in to i32
  ret i32 %.09
}